; Function Attrs: nounwind uwtable
define internal fastcc void @Card_AddCardinConstrMerge(ptr noundef %0, ptr noundef %1, i32 noundef %2, i32 noundef %3, i32 noundef %4, ptr noundef nonnull %5) unnamed_addr #0 {
  %7 = alloca [3 x i32], align 4
  %8 = alloca [2 x i32], align 4
  %9 = shl nsw i32 %4, 1
  %10 = sub nsw i32 %3, %2
  %11 = icmp slt i32 %9, %10
  br i1 %11, label %12, label %.loopexit

12:                                               ; preds = %6
  %13 = sub nsw i32 %3, %4
  tail call fastcc void @Card_AddCardinConstrMerge(ptr noundef %0, ptr noundef %1, i32 noundef %2, i32 noundef %13, i32 noundef %9, ptr noundef %5)
  %14 = add nsw i32 %4, %2
  tail call fastcc void @Card_AddCardinConstrMerge(ptr noundef %0, ptr noundef %1, i32 noundef %14, i32 noundef %3, i32 noundef %9, ptr noundef %5)
  %15 = icmp slt i32 %14, %13
  br i1 %15, label %.lr.ph, label %.preheader

.lr.ph:                                           ; preds = %12
  %16 = getelementptr inbounds nuw i8, ptr %7, i64 4
  %17 = getelementptr inbounds nuw i8, ptr %7, i64 8
  %18 = getelementptr inbounds nuw i8, ptr %7, i64 12
  %19 = sext i32 %14 to i64
  %20 = sext i32 %9 to i64
  %21 = sext i32 %4 to i64
  %22 = sext i32 %13 to i64
  %invariant.gep = getelementptr i32, ptr %1, i64 %21
  br label %30

.preheader:                                       ; preds = %30, %12
  %23 = add nsw i32 %13, -1
  %24 = icmp slt i32 %14, %23
  br i1 %24, label %.lr.ph47, label %.loopexit

.lr.ph47:                                         ; preds = %.preheader
  %25 = getelementptr inbounds nuw i8, ptr %8, i64 4
  %26 = getelementptr inbounds nuw i8, ptr %8, i64 8
  %27 = sext i32 %14 to i64
  %28 = sext i32 %4 to i64
  %29 = sext i32 %23 to i64
  br label %44

30:                                               ; preds = %.lr.ph, %30
  %indvars.iv = phi i64 [ %19, %.lr.ph ], [ %indvars.iv.next, %30 ]
  %31 = load i32, ptr %5, align 4
  %32 = add nsw i32 %31, 1
  %33 = add nsw i32 %31, 2
  store i32 %33, ptr %5, align 4
  %34 = getelementptr inbounds i32, ptr %1, i64 %indvars.iv
  %35 = load i32, ptr %34, align 4
  %gep = getelementptr i32, ptr %invariant.gep, i64 %indvars.iv
  %36 = load i32, ptr %gep, align 4
  call void @llvm.lifetime.start.p0(i64 12, ptr nonnull %7)
  %37 = shl nsw i32 %31, 1
  store i32 %37, ptr %7, align 4
  %38 = shl nsw i32 %35, 1
  %39 = or disjoint i32 %38, 1
  store i32 %39, ptr %16, align 4
  call fastcc void @Card_AddClause(ptr noundef %0, ptr noundef %7, ptr noundef %17)
  store i32 %37, ptr %7, align 4
  %40 = shl nsw i32 %36, 1
  %41 = or disjoint i32 %40, 1
  store i32 %41, ptr %16, align 4
  call fastcc void @Card_AddClause(ptr noundef %0, ptr noundef %7, ptr noundef %17)
  %42 = shl nsw i32 %32, 1
  store i32 %42, ptr %7, align 4
  store i32 %39, ptr %16, align 4
  store i32 %41, ptr %17, align 4
  call fastcc void @Card_AddClause(ptr noundef %0, ptr noundef %7, ptr noundef %18)
  call void @llvm.lifetime.end.p0(i64 12, ptr nonnull %7)
  store i32 %31, ptr %34, align 4
  store i32 %32, ptr %gep, align 4
  %indvars.iv.next = add nsw i64 %indvars.iv, %20
  %43 = icmp slt i64 %indvars.iv.next, %22
  br i1 %43, label %30, label %.preheader, !llvm.loop !29

44:                                               ; preds = %.lr.ph47, %44
  %indvars.iv49 = phi i64 [ %27, %.lr.ph47 ], [ %indvars.iv.next50, %44 ]
  %45 = getelementptr inbounds i32, ptr %1, i64 %indvars.iv49
  %46 = load i32, ptr %45, align 4
  %47 = shl nsw i32 %46, 1
  store i32 %47, ptr %8, align 4
  %indvars.iv.next50 = add nsw i64 %indvars.iv49, %28
  %48 = getelementptr inbounds i32, ptr %1, i64 %indvars.iv.next50
  %49 = load i32, ptr %48, align 4
  %50 = shl nsw i32 %49, 1
  %51 = or disjoint i32 %50, 1
  store i32 %51, ptr %25, align 4
  call fastcc void @Card_AddClause(ptr noundef %0, ptr noundef %8, ptr noundef %26)
  %52 = icmp slt i64 %indvars.iv.next50, %29
  br i1 %52, label %44, label %.loopexit, !llvm.loop !30

.loopexit:                                        ; preds = %44, %.preheader, %6
  ret void
}